target datalayout = "e-m:e-p270:32:32-p271:32:32-p272:64:64-i64:64-i128:128-f80:128-n8:16:32:64-S128"
target triple = "x86_64-pc-linux-gnu"

%struct.lv_area_t = type { i32, i32, i32, i32 }
%struct.lv_event_list_t = type { %struct._lv_array_t, i8 }
%struct._lv_array_t = type { ptr, i32, i32, i32, i8 }
%struct._lv_display_t = type { i32, i32, i32, i32, i32, i32, i32, ptr, ptr, ptr, ptr, ptr, i32, i32, i8, i32, i16, i32, [32 x %struct.lv_area_t], [32 x i8], i32, i32, %struct.lv_ll_t, %struct._lv_draw_buf_t, %struct._lv_draw_buf_t, ptr, ptr, ptr, ptr, ptr, ptr, ptr, ptr, ptr, ptr, i32, i8, ptr, ptr, %struct.lv_event_list_t, i8, ptr, ptr, i32, %struct.lv_area_t }
%struct.lv_ll_t = type { i32, ptr, ptr }
%struct._lv_draw_buf_t = type { %struct.lv_image_header_t, i32, ptr, ptr, ptr }
%struct.lv_image_header_t = type <{ i64, i32 }>

; Function Attrs: nounwind uwtable
define zeroext i1 @lv_obj_is_valid(ptr noundef %0) #0 {
  %2 = alloca i1, align 1
  %3 = alloca ptr, align 8
  %4 = alloca ptr, align 8
  %5 = alloca i32, align 4
  %6 = alloca i32, align 4
  %7 = alloca i8, align 1
  store ptr %0, ptr %3, align 8, !tbaa !8
  call void @llvm.lifetime.start.p0(i64 8, ptr %4) #5
  %8 = call ptr @lv_display_get_next(ptr noundef null)
  store ptr %8, ptr %4, align 8, !tbaa !76
  br label %9

9:                                                ; preds = %56, %1
  %10 = load ptr, ptr %4, align 8, !tbaa !76
  %11 = icmp ne ptr %10, null
  br i1 %11, label %12, label %57

12:                                               ; preds = %9
  call void @llvm.lifetime.start.p0(i64 4, ptr %5) #5
  store i32 0, ptr %5, align 4, !tbaa !17
  br label %13

13:                                               ; preds = %48, %12
  %14 = load i32, ptr %5, align 4, !tbaa !17
  %15 = load ptr, ptr %4, align 8, !tbaa !76
  %16 = getelementptr inbounds nuw %struct._lv_display_t, ptr %15, i32 0, i32 35
  %17 = load i32, ptr %16, align 8, !tbaa !78
  %18 = icmp ult i32 %14, %17
  br i1 %18, label %19, label %51

19:                                               ; preds = %13
  %20 = load ptr, ptr %4, align 8, !tbaa !76
  %21 = getelementptr inbounds nuw %struct._lv_display_t, ptr %20, i32 0, i32 28
  %22 = load ptr, ptr %21, align 8, !tbaa !88
  %23 = load i32, ptr %5, align 4, !tbaa !17
  %24 = zext i32 %23 to i64
  %25 = getelementptr inbounds nuw ptr, ptr %22, i64 %24
  %26 = load ptr, ptr %25, align 8, !tbaa !8
  %27 = load ptr, ptr %3, align 8, !tbaa !8
  %28 = icmp eq ptr %26, %27
  br i1 %28, label %29, label %30

29:                                               ; preds = %19
  store i1 true, ptr %2, align 1
  store i32 1, ptr %6, align 4
  br label %54

30:                                               ; preds = %19
  call void @llvm.lifetime.start.p0(i64 1, ptr %7) #5
  %31 = load ptr, ptr %4, align 8, !tbaa !76
  %32 = getelementptr inbounds nuw %struct._lv_display_t, ptr %31, i32 0, i32 28
  %33 = load ptr, ptr %32, align 8, !tbaa !88
  %34 = load i32, ptr %5, align 4, !tbaa !17
  %35 = zext i32 %34 to i64
  %36 = getelementptr inbounds nuw ptr, ptr %33, i64 %35
  %37 = load ptr, ptr %36, align 8, !tbaa !8
  %38 = load ptr, ptr %3, align 8, !tbaa !8
  %39 = call zeroext i1 @obj_valid_child(ptr noundef %37, ptr noundef %38)
  %40 = zext i1 %39 to i8
  store i8 %40, ptr %7, align 1, !tbaa !39
  %41 = load i8, ptr %7, align 1, !tbaa !39, !range !40, !noundef !41
  %42 = trunc i8 %41 to i1
  br i1 %42, label %43, label %44

43:                                               ; preds = %30
  store i1 true, ptr %2, align 1
  store i32 1, ptr %6, align 4
  br label %45

44:                                               ; preds = %30
  store i32 0, ptr %6, align 4
  br label %45

45:                                               ; preds = %44, %43
  call void @llvm.lifetime.end.p0(i64 1, ptr %7) #5
  %46 = load i32, ptr %6, align 4
  switch i32 %46, label %54 [
    i32 0, label %47
  ]

47:                                               ; preds = %45
  br label %48

48:                                               ; preds = %47
  %49 = load i32, ptr %5, align 4, !tbaa !17
  %50 = add i32 %49, 1
  store i32 %50, ptr %5, align 4, !tbaa !17
  br label %13, !llvm.loop !89

51:                                               ; preds = %13
  %52 = load ptr, ptr %4, align 8, !tbaa !76
  %53 = call ptr @lv_display_get_next(ptr noundef %52)
  store ptr %53, ptr %4, align 8, !tbaa !76
  store i32 0, ptr %6, align 4
  br label %54

54:                                               ; preds = %51, %45, %29
  call void @llvm.lifetime.end.p0(i64 4, ptr %5) #5
  %55 = load i32, ptr %6, align 4
  switch i32 %55, label %58 [
    i32 0, label %56
  ]

56:                                               ; preds = %54
  br label %9, !llvm.loop !90

57:                                               ; preds = %9
  store i1 false, ptr %2, align 1
  store i32 1, ptr %6, align 4
  br label %58

58:                                               ; preds = %57, %54
  call void @llvm.lifetime.end.p0(i64 8, ptr %4) #5
  %59 = load i1, ptr %2, align 1
  ret i1 %59
}