; Function Attrs: nounwind uwtable
define noundef zeroext i1 @lv_obj_is_valid(ptr noundef captures(address) %0) local_unnamed_addr #0 {
  %2 = tail call ptr @lv_display_get_next(ptr noundef null) #8
  %.not29.not = icmp eq ptr %2, null
  br i1 %.not29.not, label %.thread, label %.preheader

.preheader:                                       ; preds = %1, %._crit_edge
  %.01830 = phi ptr [ %14, %._crit_edge ], [ %2, %1 ]
  %3 = getelementptr inbounds nuw i8, ptr %.01830, i64 832
  %4 = load i32, ptr %3, align 8, !tbaa !95
  %.not2227.not = icmp eq i32 %4, 0
  br i1 %.not2227.not, label %._crit_edge, label %.lr.ph

.lr.ph:                                           ; preds = %.preheader
  %5 = getelementptr inbounds nuw i8, ptr %.01830, i64 776
  %6 = load ptr, ptr %5, align 8, !tbaa !104
  %wide.trip.count = zext i32 %4 to i64
  br label %8

7:                                                ; preds = %12
  %indvars.iv.next = add nuw nsw i64 %indvars.iv, 1
  %exitcond.not = icmp eq i64 %indvars.iv.next, %wide.trip.count
  br i1 %exitcond.not, label %._crit_edge, label %8, !llvm.loop !105

8:                                                ; preds = %.lr.ph, %7
  %indvars.iv = phi i64 [ 0, %.lr.ph ], [ %indvars.iv.next, %7 ]
  %9 = getelementptr inbounds nuw ptr, ptr %6, i64 %indvars.iv
  %10 = load ptr, ptr %9, align 8, !tbaa !32
  %11 = icmp eq ptr %10, %0
  br i1 %11, label %.thread, label %12

12:                                               ; preds = %8
  %13 = tail call fastcc zeroext i1 @obj_valid_child(ptr noundef %10, ptr noundef %0)
  br i1 %13, label %.thread, label %7

._crit_edge:                                      ; preds = %7, %.preheader
  %14 = tail call ptr @lv_display_get_next(ptr noundef nonnull %.01830) #8
  %.not.not = icmp eq ptr %14, null
  br i1 %.not.not, label %.thread, label %.preheader

.thread:                                          ; preds = %._crit_edge, %12, %8, %1
  %.not26 = phi i1 [ false, %1 ], [ true, %8 ], [ true, %12 ], [ false, %._crit_edge ]
  ret i1 %.not26
}